target datalayout = "e-m:e-p270:32:32-p271:32:32-p272:64:64-i64:64-i128:128-f80:128-n8:16:32:64-S128"
target triple = "x86_64-unknown-linux-gnu"

%"class.std::__cxx11::basic_string" = type { %"struct.std::__cxx11::basic_string<char>::_Alloc_hider", i64, %union.anon }
%"struct.std::__cxx11::basic_string<char>::_Alloc_hider" = type { ptr }
%union.anon = type { i64, [8 x i8] }
%"class.std::allocator" = type { i8 }
%"class.flatbuffers::Table" = type { [1 x i8] }

@.str.16 = private unnamed_addr constant [8 x i8] c"uoffset\00", align 1
@.str.216 = private unnamed_addr constant [50 x i8] c"basic_string: construction from null is not valid\00", align 1

; Function Attrs: mustprogress nounwind uwtable
define linkonce_odr dso_local noundef i32 @_ZN11flatbuffers12EndianScalarIiEET_S1_(i32 noundef %t) #4 comdat {
entry:
  %t.addr = alloca i32, align 4
  store i32 %t, ptr %t.addr, align 4
  %0 = load i32, ptr %t.addr, align 4
  ret i32 %0
}

; Function Attrs: mustprogress nounwind uwtable
define linkonce_odr dso_local noundef zeroext i16 @_ZN11flatbuffers12EndianScalarItEET_S1_(i16 noundef zeroext %t) #4 comdat {
entry:
  %t.addr = alloca i16, align 2
  store i16 %t, ptr %t.addr, align 2
  %0 = load i16, ptr %t.addr, align 2
  ret i16 %0
}

; Function Attrs: mustprogress uwtable
define linkonce_odr dso_local noundef i32 @_ZN11flatbuffers10ReadScalarIiEET_PKv(ptr noundef %p) #2 comdat {
entry:
  %p.addr = alloca ptr, align 8
  store ptr %p, ptr %p.addr, align 8
  %0 = load ptr, ptr %p.addr, align 8
  %1 = load i32, ptr %0, align 4
  %call = call noundef i32 @_ZN11flatbuffers12EndianScalarIiEET_S1_(i32 noundef %1)
  ret i32 %call
}

; Function Attrs: mustprogress nounwind uwtable
define linkonce_odr dso_local noundef signext i8 @_ZN11flatbuffers12EndianScalarIaEET_S1_(i8 noundef signext %t) #4 comdat {
entry:
  %t.addr = alloca i8, align 1
  store i8 %t, ptr %t.addr, align 1
  %0 = load i8, ptr %t.addr, align 1
  ret i8 %0
}

; Function Attrs: mustprogress uwtable
define linkonce_odr dso_local noundef zeroext i16 @_ZN11flatbuffers10ReadScalarItEET_PKv(ptr noundef %p) #2 comdat {
entry:
  %p.addr = alloca ptr, align 8
  store ptr %p, ptr %p.addr, align 8
  %0 = load ptr, ptr %p.addr, align 8
  %1 = load i16, ptr %0, align 2
  %call = call noundef zeroext i16 @_ZN11flatbuffers12EndianScalarItEET_S1_(i16 noundef zeroext %1)
  ret i16 %call
}

; Function Attrs: mustprogress uwtable
define linkonce_odr dso_local noundef ptr @_ZNK11flatbuffers5Table9GetVTableEv(ptr noundef nonnull align 1 dereferenceable(1) %this) #2 comdat align 2 {
entry:
  %this.addr = alloca ptr, align 8
  store ptr %this, ptr %this.addr, align 8
  %this1 = load ptr, ptr %this.addr, align 8
  %data_ = getelementptr inbounds %"class.flatbuffers::Table", ptr %this1, i32 0, i32 0
  %arraydecay = getelementptr inbounds [1 x i8], ptr %data_, i64 0, i64 0
  %data_2 = getelementptr inbounds %"class.flatbuffers::Table", ptr %this1, i32 0, i32 0
  %arraydecay3 = getelementptr inbounds [1 x i8], ptr %data_2, i64 0, i64 0
  %call = call noundef i32 @_ZN11flatbuffers10ReadScalarIiEET_PKv(ptr noundef %arraydecay3)
  %idx.ext = sext i32 %call to i64
  %idx.neg = sub i64 0, %idx.ext
  %add.ptr = getelementptr inbounds i8, ptr %arraydecay, i64 %idx.neg
  ret ptr %add.ptr
}

; Function Attrs: mustprogress uwtable
define linkonce_odr dso_local noundef signext i8 @_ZN11flatbuffers10ReadScalarIaEET_PKv(ptr noundef %p) #2 comdat {
entry:
  %p.addr = alloca ptr, align 8
  store ptr %p, ptr %p.addr, align 8
  %0 = load ptr, ptr %p.addr, align 8
  %1 = load i8, ptr %0, align 1
  %call = call noundef signext i8 @_ZN11flatbuffers12EndianScalarIaEET_S1_(i8 noundef signext %1)
  ret i8 %call
}

; Function Attrs: mustprogress uwtable
define linkonce_odr dso_local noundef zeroext i16 @_ZNK11flatbuffers5Table22GetOptionalFieldOffsetEt(ptr noundef nonnull align 1 dereferenceable(1) %this, i16 noundef zeroext %field) #2 comdat align 2 {
entry:
  %this.addr = alloca ptr, align 8
  %field.addr = alloca i16, align 2
  %vtable = alloca ptr, align 8
  %vtsize = alloca i16, align 2
  store ptr %this, ptr %this.addr, align 8
  store i16 %field, ptr %field.addr, align 2
  %this1 = load ptr, ptr %this.addr, align 8
  %call = call noundef ptr @_ZNK11flatbuffers5Table9GetVTableEv(ptr noundef nonnull align 1 dereferenceable(1) %this1)
  store ptr %call, ptr %vtable, align 8
  %0 = load ptr, ptr %vtable, align 8
  %call2 = call noundef zeroext i16 @_ZN11flatbuffers10ReadScalarItEET_PKv(ptr noundef %0)
  store i16 %call2, ptr %vtsize, align 2
  %1 = load i16, ptr %field.addr, align 2
  %conv = zext i16 %1 to i32
  %2 = load i16, ptr %vtsize, align 2
  %conv3 = zext i16 %2 to i32
  %cmp = icmp slt i32 %conv, %conv3
  br i1 %cmp, label %cond.true, label %cond.false

cond.true:                                        ; preds = %entry
  %3 = load ptr, ptr %vtable, align 8
  %4 = load i16, ptr %field.addr, align 2
  %conv4 = zext i16 %4 to i32
  %idx.ext = sext i32 %conv4 to i64
  %add.ptr = getelementptr inbounds i8, ptr %3, i64 %idx.ext
  %call5 = call noundef zeroext i16 @_ZN11flatbuffers10ReadScalarItEET_PKv(ptr noundef %add.ptr)
  %conv6 = zext i16 %call5 to i32
  br label %cond.end

cond.false:                                       ; preds = %entry
  br label %cond.end

cond.end:                                         ; preds = %cond.false, %cond.true
  %cond = phi i32 [ %conv6, %cond.true ], [ 0, %cond.false ]
  %conv7 = trunc i32 %cond to i16
  ret i16 %conv7
}

; Function Attrs: mustprogress nounwind uwtable
define linkonce_odr dso_local noundef i64 @_ZNSt11char_traitsIcE6lengthEPKc(ptr noundef %__s) #4 comdat align 2 {
entry:
  %__s.addr = alloca ptr, align 8
  store ptr %__s, ptr %__s.addr, align 8
  %0 = load ptr, ptr %__s.addr, align 8
  %call = call i64 @strlen(ptr noundef %0) #3
  ret i64 %call
}

; Function Attrs: mustprogress nounwind uwtable
define linkonce_odr dso_local void @_ZNSt7__cxx1112basic_stringIcSt11char_traitsIcESaIcEE12_Alloc_hiderD2Ev(ptr noundef nonnull align 8 dereferenceable(8) %this) unnamed_addr #4 comdat align 2 {
entry:
  %this.addr = alloca ptr, align 8
  store ptr %this, ptr %this.addr, align 8
  %this1 = load ptr, ptr %this.addr, align 8
  call void @_ZNSaIcED2Ev(ptr noundef nonnull align 1 dereferenceable(1) %this1) #3
  ret void
}

; Function Attrs: mustprogress uwtable
define linkonce_odr dso_local noundef signext i8 @_ZNK11flatbuffers5Table8GetFieldIaEET_tS2_(ptr noundef nonnull align 1 dereferenceable(1) %this, i16 noundef zeroext %field, i8 noundef signext %defaultval) #2 comdat align 2 {
entry:
  %this.addr = alloca ptr, align 8
  %field.addr = alloca i16, align 2
  %defaultval.addr = alloca i8, align 1
  %field_offset = alloca i16, align 2
  store ptr %this, ptr %this.addr, align 8
  store i16 %field, ptr %field.addr, align 2
  store i8 %defaultval, ptr %defaultval.addr, align 1
  %this1 = load ptr, ptr %this.addr, align 8
  %0 = load i16, ptr %field.addr, align 2
  %call = call noundef zeroext i16 @_ZNK11flatbuffers5Table22GetOptionalFieldOffsetEt(ptr noundef nonnull align 1 dereferenceable(1) %this1, i16 noundef zeroext %0)
  store i16 %call, ptr %field_offset, align 2
  %1 = load i16, ptr %field_offset, align 2
  %tobool = icmp ne i16 %1, 0
  br i1 %tobool, label %cond.true, label %cond.false

cond.true:                                        ; preds = %entry
  %data_ = getelementptr inbounds %"class.flatbuffers::Table", ptr %this1, i32 0, i32 0
  %arraydecay = getelementptr inbounds [1 x i8], ptr %data_, i64 0, i64 0
  %2 = load i16, ptr %field_offset, align 2
  %conv = zext i16 %2 to i32
  %idx.ext = sext i32 %conv to i64
  %add.ptr = getelementptr inbounds i8, ptr %arraydecay, i64 %idx.ext
  %call2 = call noundef signext i8 @_ZN11flatbuffers10ReadScalarIaEET_PKv(ptr noundef %add.ptr)
  br label %cond.end

cond.false:                                       ; preds = %entry
  %3 = load i8, ptr %defaultval.addr, align 1
  br label %cond.end

cond.end:                                         ; preds = %cond.false, %cond.true
  %cond = phi i8 [ %call2, %cond.true ], [ %3, %cond.false ]
  ret i8 %cond
}

; Function Attrs: mustprogress uwtable
define linkonce_odr dso_local void @_ZNSt7__cxx1112basic_stringIcSt11char_traitsIcESaIcEEC2IS3_EEPKcRKS3_(ptr noundef nonnull align 8 dereferenceable(32) %this, ptr noundef %__s, ptr noundef nonnull align 1 dereferenceable(1) %__a) unnamed_addr #2 comdat align 2 personality ptr @__gxx_personality_v0 {
entry:
  %this.addr = alloca ptr, align 8
  %__s.addr = alloca ptr, align 8
  %__a.addr = alloca ptr, align 8
  %exn.slot = alloca ptr, align 8
  %ehselector.slot = alloca i32, align 4
  %__end = alloca ptr, align 8
  store ptr %this, ptr %this.addr, align 8
  store ptr %__s, ptr %__s.addr, align 8
  store ptr %__a, ptr %__a.addr, align 8
  %this1 = load ptr, ptr %this.addr, align 8
  %_M_dataplus = getelementptr inbounds %"class.std::__cxx11::basic_string", ptr %this1, i32 0, i32 0
  %call = call noundef ptr @_ZNSt7__cxx1112basic_stringIcSt11char_traitsIcESaIcEE13_M_local_dataEv(ptr noundef nonnull align 8 dereferenceable(32) %this1)
  %0 = load ptr, ptr %__a.addr, align 8
  call void @_ZNSt7__cxx1112basic_stringIcSt11char_traitsIcESaIcEE12_Alloc_hiderC1EPcRKS3_(ptr noundef nonnull align 8 dereferenceable(8) %_M_dataplus, ptr noundef %call, ptr noundef nonnull align 1 dereferenceable(1) %0)
  %1 = load ptr, ptr %__s.addr, align 8
  %cmp = icmp eq ptr %1, null
  br i1 %cmp, label %if.then, label %if.end

if.then:                                          ; preds = %entry
  invoke void @_ZSt19__throw_logic_errorPKc(ptr noundef @.str.216) #14
          to label %invoke.cont unwind label %lpad

invoke.cont:                                      ; preds = %if.then
  unreachable

lpad:                                             ; preds = %if.end, %if.then
  %2 = landingpad { ptr, i32 }
          cleanup
  %3 = extractvalue { ptr, i32 } %2, 0
  store ptr %3, ptr %exn.slot, align 8
  %4 = extractvalue { ptr, i32 } %2, 1
  store i32 %4, ptr %ehselector.slot, align 4
  call void @_ZNSt7__cxx1112basic_stringIcSt11char_traitsIcESaIcEE12_Alloc_hiderD2Ev(ptr noundef nonnull align 8 dereferenceable(8) %_M_dataplus) #3
  br label %eh.resume

if.end:                                           ; preds = %entry
  %5 = load ptr, ptr %__s.addr, align 8
  %6 = load ptr, ptr %__s.addr, align 8
  %call2 = call noundef i64 @_ZNSt11char_traitsIcE6lengthEPKc(ptr noundef %6)
  %add.ptr = getelementptr inbounds i8, ptr %5, i64 %call2
  store ptr %add.ptr, ptr %__end, align 8
  %7 = load ptr, ptr %__s.addr, align 8
  %8 = load ptr, ptr %__end, align 8
  invoke void @_ZNSt7__cxx1112basic_stringIcSt11char_traitsIcESaIcEE12_M_constructIPKcEEvT_S8_St20forward_iterator_tag(ptr noundef nonnull align 8 dereferenceable(32) %this1, ptr noundef %7, ptr noundef %8)
          to label %invoke.cont3 unwind label %lpad

invoke.cont3:                                     ; preds = %if.end
  ret void

eh.resume:                                        ; preds = %lpad
  %exn = load ptr, ptr %exn.slot, align 8
  %sel = load i32, ptr %ehselector.slot, align 4
  %lpad.val = insertvalue { ptr, i32 } poison, ptr %exn, 0
  %lpad.val4 = insertvalue { ptr, i32 } %lpad.val, i32 %sel, 1
  resume { ptr, i32 } %lpad.val4
}

; Function Attrs: mustprogress nounwind uwtable
define linkonce_odr dso_local noundef zeroext i1 @_ZN11flatbuffers8IsScalarEN10reflection8BaseTypeE(i32 noundef %t) #4 comdat {
entry:
  %t.addr = alloca i32, align 4
  store i32 %t, ptr %t.addr, align 4
  %0 = load i32, ptr %t.addr, align 4
  %cmp = icmp sge i32 %0, 1
  br i1 %cmp, label %land.rhs, label %land.end

land.rhs:                                         ; preds = %entry
  %1 = load i32, ptr %t.addr, align 4
  %cmp1 = icmp sle i32 %1, 12
  br label %land.end

land.end:                                         ; preds = %land.rhs, %entry
  %2 = phi i1 [ false, %entry ], [ %cmp1, %land.rhs ]
  ret i1 %2
}

; Function Attrs: mustprogress uwtable
define linkonce_odr dso_local noundef i32 @_ZNK10reflection4Type9base_typeEv(ptr noundef nonnull align 1 dereferenceable(1) %this) #2 comdat align 2 {
entry:
  %this.addr = alloca ptr, align 8
  store ptr %this, ptr %this.addr, align 8
  %this1 = load ptr, ptr %this.addr, align 8
  %call = call noundef signext i8 @_ZNK11flatbuffers5Table8GetFieldIaEET_tS2_(ptr noundef nonnull align 1 dereferenceable(1) %this1, i16 noundef zeroext 4, i8 noundef signext 0)
  %conv = sext i8 %call to i32
  ret i32 %conv
}

; Function Attrs: mustprogress uwtable
define linkonce_odr dso_local noundef i32 @_ZNK10reflection4Type7elementEv(ptr noundef nonnull align 1 dereferenceable(1) %this) #2 comdat align 2 {
entry:
  %this.addr = alloca ptr, align 8
  store ptr %this, ptr %this.addr, align 8
  %this1 = load ptr, ptr %this.addr, align 8
  %call = call noundef signext i8 @_ZNK11flatbuffers5Table8GetFieldIaEET_tS2_(ptr noundef nonnull align 1 dereferenceable(1) %this1, i16 noundef zeroext 6, i8 noundef signext 0)
  %conv = sext i8 %call to i32
  ret i32 %conv
}

; Function Attrs: mustprogress uwtable
define internal void @_ZNK11flatbuffers12_GLOBAL__N_116NimBfbsGenerator17GenerateTypeBasicB5cxx11EPKN10reflection4TypeEb(ptr noalias sret(%"class.std::__cxx11::basic_string") align 8 %agg.result, ptr noundef nonnull align 8 dereferenceable(624) %this, ptr noundef %type, i1 noundef zeroext %element_type) #2 align 2 personality ptr @__gxx_personality_v0 {
entry:
  %result.ptr = alloca ptr, align 8
  %this.addr = alloca ptr, align 8
  %type.addr = alloca ptr, align 8
  %element_type.addr = alloca i8, align 1
  %base_type = alloca i32, align 4
  %ref.tmp = alloca %"class.std::allocator", align 1
  %exn.slot = alloca ptr, align 8
  %ehselector.slot = alloca i32, align 4
  store ptr %agg.result, ptr %result.ptr, align 8
  store ptr %this, ptr %this.addr, align 8
  store ptr %type, ptr %type.addr, align 8
  %frombool = zext i1 %element_type to i8
  store i8 %frombool, ptr %element_type.addr, align 1
  %this1 = load ptr, ptr %this.addr, align 8
  %0 = load i8, ptr %element_type.addr, align 1
  %tobool = trunc i8 %0 to i1
  br i1 %tobool, label %cond.true, label %cond.false

cond.true:                                        ; preds = %entry
  %1 = load ptr, ptr %type.addr, align 8
  %call = call noundef i32 @_ZNK10reflection4Type7elementEv(ptr noundef nonnull align 1 dereferenceable(1) %1)
  br label %cond.end

cond.false:                                       ; preds = %entry
  %2 = load ptr, ptr %type.addr, align 8
  %call2 = call noundef i32 @_ZNK10reflection4Type9base_typeEv(ptr noundef nonnull align 1 dereferenceable(1) %2)
  br label %cond.end

cond.end:                                         ; preds = %cond.false, %cond.true
  %cond = phi i32 [ %call, %cond.true ], [ %call2, %cond.false ]
  store i32 %cond, ptr %base_type, align 4
  %3 = load i32, ptr %base_type, align 4
  %call3 = call noundef zeroext i1 @_ZN11flatbuffers8IsScalarEN10reflection8BaseTypeE(i32 noundef %3)
  br i1 %call3, label %if.then, label %if.else

if.then:                                          ; preds = %cond.end
  %4 = load i32, ptr %base_type, align 4
  call void @_ZNK11flatbuffers12_GLOBAL__N_116NimBfbsGenerator12GenerateTypeB5cxx11EN10reflection8BaseTypeE(ptr sret(%"class.std::__cxx11::basic_string") align 8 %agg.result, ptr noundef nonnull align 8 dereferenceable(624) %this1, i32 noundef %4)
  br label %return

if.else:                                          ; preds = %cond.end
  call void @_ZNSaIcEC1Ev(ptr noundef nonnull align 1 dereferenceable(1) %ref.tmp) #3
  invoke void @_ZNSt7__cxx1112basic_stringIcSt11char_traitsIcESaIcEEC2IS3_EEPKcRKS3_(ptr noundef nonnull align 8 dereferenceable(32) %agg.result, ptr noundef @.str.16, ptr noundef nonnull align 1 dereferenceable(1) %ref.tmp)
          to label %invoke.cont unwind label %lpad

invoke.cont:                                      ; preds = %if.else
  call void @_ZNSaIcED1Ev(ptr noundef nonnull align 1 dereferenceable(1) %ref.tmp) #3
  br label %return

lpad:                                             ; preds = %if.else
  %5 = landingpad { ptr, i32 }
          cleanup
  %6 = extractvalue { ptr, i32 } %5, 0
  store ptr %6, ptr %exn.slot, align 8
  %7 = extractvalue { ptr, i32 } %5, 1
  store i32 %7, ptr %ehselector.slot, align 4
  call void @_ZNSaIcED1Ev(ptr noundef nonnull align 1 dereferenceable(1) %ref.tmp) #3
  br label %eh.resume

return:                                           ; preds = %invoke.cont, %if.then
  ret void

eh.resume:                                        ; preds = %lpad
  %exn = load ptr, ptr %exn.slot, align 8
  %sel = load i32, ptr %ehselector.slot, align 4
  %lpad.val = insertvalue { ptr, i32 } poison, ptr %exn, 0
  %lpad.val4 = insertvalue { ptr, i32 } %lpad.val, i32 %sel, 1
  resume { ptr, i32 } %lpad.val4
}