; Function Attrs: mustprogress uwtable
define internal fastcc void @_ZNK11flatbuffers12_GLOBAL__N_116NimBfbsGenerator17GenerateTypeBasicB5cxx11EPKN10reflection4TypeEb(ptr noalias align 8 %agg.result, ptr nocapture noundef readonly %type) unnamed_addr #3 align 2 personality ptr @__gxx_personality_v0 {
entry:
  %ref.tmp = alloca %"class.std::allocator", align 1
  %0 = load i32, ptr %type, align 4
  %idx.ext.i.i.i.i = sext i32 %0 to i64
  %idx.neg.i.i.i.i = sub nsw i64 0, %idx.ext.i.i.i.i
  %add.ptr.i.i.i.i = getelementptr inbounds i8, ptr %type, i64 %idx.neg.i.i.i.i
  %1 = load i16, ptr %add.ptr.i.i.i.i, align 2
  %cmp.i.i.i = icmp ugt i16 %1, 4
  br i1 %cmp.i.i.i, label %_ZNK11flatbuffers5Table22GetOptionalFieldOffsetEt.exit.i.i, label %if.else

_ZNK11flatbuffers5Table22GetOptionalFieldOffsetEt.exit.i.i: ; preds = %entry
  %add.ptr.i.i.i = getelementptr inbounds i8, ptr %add.ptr.i.i.i.i, i64 4
  %2 = load i16, ptr %add.ptr.i.i.i, align 2
  %tobool.not.i.i = icmp eq i16 %2, 0
  br i1 %tobool.not.i.i, label %if.else, label %_ZNK10reflection4Type9base_typeEv.exit

_ZNK10reflection4Type9base_typeEv.exit:           ; preds = %_ZNK11flatbuffers5Table22GetOptionalFieldOffsetEt.exit.i.i
  %idx.ext.i.i = zext i16 %2 to i64
  %add.ptr.i.i = getelementptr inbounds i8, ptr %type, i64 %idx.ext.i.i
  %3 = load i8, ptr %add.ptr.i.i, align 1
  %4 = sext i8 %3 to i32
  %5 = add nsw i32 %4, -1
  %6 = icmp ult i32 %5, 12
  br i1 %6, label %if.then, label %if.else

if.then:                                          ; preds = %_ZNK10reflection4Type9base_typeEv.exit
  tail call fastcc void @_ZNK11flatbuffers12_GLOBAL__N_116NimBfbsGenerator12GenerateTypeB5cxx11EN10reflection8BaseTypeE(ptr noalias align 8 %agg.result, i32 noundef %4)
  br label %return

if.else:                                          ; preds = %entry, %_ZNK11flatbuffers5Table22GetOptionalFieldOffsetEt.exit.i.i, %_ZNK10reflection4Type9base_typeEv.exit
  call void @_ZNSaIcEC1Ev(ptr noundef nonnull align 1 dereferenceable(1) %ref.tmp) #24
  %call.i3 = invoke noundef ptr @_ZNSt7__cxx1112basic_stringIcSt11char_traitsIcESaIcEE13_M_local_dataEv(ptr noundef nonnull align 8 dereferenceable(32) %agg.result)
          to label %call.i.noexc unwind label %lpad

call.i.noexc:                                     ; preds = %if.else
  invoke void @_ZNSt7__cxx1112basic_stringIcSt11char_traitsIcESaIcEE12_Alloc_hiderC1EPcRKS3_(ptr noundef nonnull align 8 dereferenceable(8) %agg.result, ptr noundef %call.i3, ptr noundef nonnull align 1 dereferenceable(1) %ref.tmp)
          to label %.noexc unwind label %lpad

.noexc:                                           ; preds = %call.i.noexc
  invoke void @_ZNSt7__cxx1112basic_stringIcSt11char_traitsIcESaIcEE12_M_constructIPKcEEvT_S8_St20forward_iterator_tag(ptr noundef nonnull align 8 dereferenceable(32) %agg.result, ptr noundef nonnull @.str.16, ptr noundef nonnull getelementptr inbounds ([8 x i8], ptr @.str.16, i64 0, i64 7))
          to label %invoke.cont unwind label %lpad.i

lpad.i:                                           ; preds = %.noexc
  %7 = landingpad { ptr, i32 }
          cleanup
  call void @_ZNSaIcED2Ev(ptr noundef nonnull align 1 dereferenceable(1) %agg.result) #24
  br label %lpad.body

invoke.cont:                                      ; preds = %.noexc
  call void @_ZNSaIcED1Ev(ptr noundef nonnull align 1 dereferenceable(1) %ref.tmp) #24
  br label %return

lpad:                                             ; preds = %call.i.noexc, %if.else
  %8 = landingpad { ptr, i32 }
          cleanup
  br label %lpad.body

lpad.body:                                        ; preds = %lpad.i, %lpad
  %eh.lpad-body = phi { ptr, i32 } [ %8, %lpad ], [ %7, %lpad.i ]
  call void @_ZNSaIcED1Ev(ptr noundef nonnull align 1 dereferenceable(1) %ref.tmp) #24
  resume { ptr, i32 } %eh.lpad-body

return:                                           ; preds = %invoke.cont, %if.then
  ret void
}